ccopy_reg
_reconstructor
p1
(cpytrie
StringTrie
p2
c__builtin__
object
p3
NtRp4
(dp5
S'_root'
p6
g1
(cpytrie
Node
p7
g3
NtRp8
(cpytrie
NULL
p9
(dp10
S'a'
g1
(g7
g3
NtRp11
(g9
(dp12
S'r'
g1
(g7
g3
NtRp13
(g9
(dp14
S'e'
g1
(g7
g3
NtRp15
(I6
(dp16
tbstbsS'l'
g1
(g7
g3
NtRp17
(g9
(dp18
S'l'
g1
(g7
g3
NtRp19
(I2
(dp20
S'o'
g1
(g7
g3
NtRp21
(g9
(dp22
S'y'
g1
(g7
g3
NtRp23
(I4
(dp24
tbsS't'
g1
(g7
g3
NtRp25
(I3
(dp26
tbstbstbsS'o'
g1
(g7
g3
NtRp27
(g9
(dp28
S'e'
g1
(g7
g3
NtRp29
(I5
(dp30
tbstbstbsS'n'
g1
(g7
g3
NtRp31
(I0
(dp32
S't'
g1
(g7
g3
NtRp33
(I1
(dp34
tbstbstbsS'r'
g1
(g7
g3
NtRp35
(g9
(dp36
S'e'
g1
(g7
g3
NtRp37
(I10
(dp38
S'd'
g1
(g7
g3
NtRp39
(I9
(dp40
S'_'
g1
(g7
g3
NtRp41
(g9
(dp42
S'a'
g1
(g7
g3
NtRp43
(g9
(dp44
S'n'
g1
(g7
g3
NtRp45
(g9
(dp46
S't'
g1
(g7
g3
NtRp47
(I8
(dp48
tbstbstbstbstbstbstbsS'b'
g1
(g7
g3
NtRp49
(g9
(dp50
S'e'
g1
(g7
g3
NtRp51
(I7
(dp52
tbstbstbsb.